; Function Attrs: nounwind uwtable
define noalias nonnull ptr @l_Lean_Loop_forIn_loop___at___private_Lean_Meta_Tactic_Grind_Inv_0__Lean_Meta_Grind_checkMatchCondParent___spec__1___lambda__1(ptr noundef %0, ptr noundef %1, ptr readnone captures(none) %2, ptr readnone captures(none) %3, ptr readnone captures(none) %4, ptr readnone captures(none) %5, ptr readnone captures(none) %6, ptr readnone captures(none) %7, ptr readnone captures(none) %8, ptr readnone captures(none) %9, ptr readnone captures(none) %10, ptr readnone captures(none) %11, ptr noundef %12) local_unnamed_addr #0 {
  tail call void @lean_inc_heartbeat() #4
  %14 = tail call noalias ptr @mi_malloc_small(i64 noundef 24) #4
  %15 = icmp eq ptr %14, null
  br i1 %15, label %16, label %lean_alloc_ctor.exit

16:                                               ; preds = %13
  tail call void @lean_internal_panic_out_of_memory() #5
  unreachable

lean_alloc_ctor.exit:                             ; preds = %13
  %17 = getelementptr inbounds nuw i8, ptr %14, i64 4
  store i32 1, ptr %14, align 4, !tbaa !8
  store i32 131096, ptr %17, align 4
  %18 = getelementptr inbounds nuw i8, ptr %14, i64 8
  store ptr %0, ptr %18, align 8, !tbaa !4
  %19 = getelementptr inbounds nuw i8, ptr %14, i64 16
  store ptr %1, ptr %19, align 8, !tbaa !4
  tail call void @lean_inc_heartbeat() #4
  %20 = tail call noalias ptr @mi_malloc_small(i64 noundef 16) #4
  %21 = icmp eq ptr %20, null
  br i1 %21, label %22, label %lean_alloc_ctor.exit11

22:                                               ; preds = %lean_alloc_ctor.exit
  tail call void @lean_internal_panic_out_of_memory() #5
  unreachable

lean_alloc_ctor.exit11:                           ; preds = %lean_alloc_ctor.exit
  %23 = getelementptr inbounds nuw i8, ptr %20, i64 4
  store i32 1, ptr %20, align 4, !tbaa !8
  store i32 16842768, ptr %23, align 4
  %24 = getelementptr inbounds nuw i8, ptr %20, i64 8
  store ptr %14, ptr %24, align 8, !tbaa !4
  tail call void @lean_inc_heartbeat() #4
  %25 = tail call noalias ptr @mi_malloc_small(i64 noundef 24) #4
  %26 = icmp eq ptr %25, null
  br i1 %26, label %27, label %lean_alloc_ctor.exit12

27:                                               ; preds = %lean_alloc_ctor.exit11
  tail call void @lean_internal_panic_out_of_memory() #5
  unreachable

lean_alloc_ctor.exit12:                           ; preds = %lean_alloc_ctor.exit11
  %28 = getelementptr inbounds nuw i8, ptr %25, i64 4
  store i32 1, ptr %25, align 4, !tbaa !8
  store i32 131096, ptr %28, align 4
  %29 = getelementptr inbounds nuw i8, ptr %25, i64 8
  store ptr %20, ptr %29, align 8, !tbaa !4
  %30 = getelementptr inbounds nuw i8, ptr %25, i64 16
  store ptr %12, ptr %30, align 8, !tbaa !4
  ret ptr %25
}